; Function Attrs: mustprogress nounwind uwtable
define hidden void @_ZN4cvc58internal19TrustProofGeneratorD0Ev(ptr noundef nonnull align 8 dereferenceable(56) initializes((0, 8), (16, 24)) %0) unnamed_addr #4 align 2 personality ptr @__gxx_personality_v0 {
  store ptr getelementptr inbounds nuw inrange(-16, 32) (i8, ptr @_ZTVN4cvc58internal19TrustProofGeneratorE, i64 16), ptr %0, align 8, !tbaa !3
  %2 = getelementptr inbounds nuw i8, ptr %0, i64 16
  store ptr getelementptr inbounds nuw inrange(-16, 48) (i8, ptr @_ZTVN4cvc58internal19TrustProofGeneratorE, i64 64), ptr %2, align 8, !tbaa !3
  %3 = getelementptr inbounds nuw i8, ptr %0, i64 32
  %4 = load ptr, ptr %3, align 8, !tbaa !20
  %5 = getelementptr inbounds nuw i8, ptr %0, i64 40
  %6 = load ptr, ptr %5, align 8, !tbaa !19
  %.not4.i.i.i.i.i = icmp eq ptr %4, %6
  br i1 %.not4.i.i.i.i.i, label %_ZSt8_DestroyIPN4cvc58internal12NodeTemplateILb1EEES3_EvT_S5_RSaIT0_E.exit.i.i, label %.lr.ph.i.i.i.i.i

.lr.ph.i.i.i.i.i:                                 ; preds = %1, %_ZSt8_DestroyIN4cvc58internal12NodeTemplateILb1EEEEvPT_.exit.i.i.i.i.i
  %.05.i.i.i.i.i = phi ptr [ %20, %_ZSt8_DestroyIN4cvc58internal12NodeTemplateILb1EEEEvPT_.exit.i.i.i.i.i ], [ %4, %1 ]
  %7 = load ptr, ptr %.05.i.i.i.i.i, align 8, !tbaa !24
  %8 = load i64, ptr %7, align 8
  %9 = and i64 %8, 1152920405095219200
  %.not.i.i.i.i.i.i.i.i = icmp eq i64 %9, 1152920405095219200
  br i1 %.not.i.i.i.i.i.i.i.i, label %_ZSt8_DestroyIN4cvc58internal12NodeTemplateILb1EEEEvPT_.exit.i.i.i.i.i, label %10, !prof !21

10:                                               ; preds = %.lr.ph.i.i.i.i.i
  %11 = add i64 %8, 1152920405095219200
  %12 = and i64 %11, 1152920405095219200
  %13 = and i64 %8, -1152920405095219201
  %14 = or disjoint i64 %12, %13
  store i64 %14, ptr %7, align 8
  %15 = icmp eq i64 %12, 0
  br i1 %15, label %16, label %_ZSt8_DestroyIN4cvc58internal12NodeTemplateILb1EEEEvPT_.exit.i.i.i.i.i, !prof !21

16:                                               ; preds = %10
  invoke void @_ZN4cvc58internal4expr9NodeValue15markForDeletionEv(ptr noundef nonnull align 8 dereferenceable(24) %7)
          to label %_ZSt8_DestroyIN4cvc58internal12NodeTemplateILb1EEEEvPT_.exit.i.i.i.i.i unwind label %17

17:                                               ; preds = %16
  %18 = landingpad { ptr, i32 }
          catch ptr null
  %19 = extractvalue { ptr, i32 } %18, 0
  tail call void @__clang_call_terminate(ptr %19) #22
  unreachable

_ZSt8_DestroyIN4cvc58internal12NodeTemplateILb1EEEEvPT_.exit.i.i.i.i.i: ; preds = %16, %10, %.lr.ph.i.i.i.i.i
  %20 = getelementptr inbounds nuw i8, ptr %.05.i.i.i.i.i, i64 8
  %.not.i.i.i.i.i = icmp eq ptr %20, %6
  br i1 %.not.i.i.i.i.i, label %_ZSt8_DestroyIPN4cvc58internal12NodeTemplateILb1EEES3_EvT_S5_RSaIT0_E.exitthread-pre-split.i.i, label %.lr.ph.i.i.i.i.i, !llvm.loop !27

_ZSt8_DestroyIPN4cvc58internal12NodeTemplateILb1EEES3_EvT_S5_RSaIT0_E.exitthread-pre-split.i.i: ; preds = %_ZSt8_DestroyIN4cvc58internal12NodeTemplateILb1EEEEvPT_.exit.i.i.i.i.i
  %.pr.i.i = load ptr, ptr %3, align 8, !tbaa !20
  br label %_ZSt8_DestroyIPN4cvc58internal12NodeTemplateILb1EEES3_EvT_S5_RSaIT0_E.exit.i.i

_ZSt8_DestroyIPN4cvc58internal12NodeTemplateILb1EEES3_EvT_S5_RSaIT0_E.exit.i.i: ; preds = %_ZSt8_DestroyIPN4cvc58internal12NodeTemplateILb1EEES3_EvT_S5_RSaIT0_E.exitthread-pre-split.i.i, %1
  %21 = phi ptr [ %.pr.i.i, %_ZSt8_DestroyIPN4cvc58internal12NodeTemplateILb1EEES3_EvT_S5_RSaIT0_E.exitthread-pre-split.i.i ], [ %4, %1 ]
  %.not.i.i.i.i = icmp eq ptr %21, null
  br i1 %.not.i.i.i.i, label %_ZN4cvc58internal19TrustProofGeneratorD2Ev.exit, label %22

22:                                               ; preds = %_ZSt8_DestroyIPN4cvc58internal12NodeTemplateILb1EEES3_EvT_S5_RSaIT0_E.exit.i.i
  %23 = getelementptr inbounds nuw i8, ptr %0, i64 48
  %24 = load ptr, ptr %23, align 8, !tbaa !22
  %25 = ptrtoint ptr %24 to i64
  %26 = ptrtoint ptr %21 to i64
  %27 = sub i64 %25, %26
  tail call void @_ZdlPvm(ptr noundef nonnull %21, i64 noundef %27) #20
  br label %_ZN4cvc58internal19TrustProofGeneratorD2Ev.exit

_ZN4cvc58internal19TrustProofGeneratorD2Ev.exit:  ; preds = %_ZSt8_DestroyIPN4cvc58internal12NodeTemplateILb1EEES3_EvT_S5_RSaIT0_E.exit.i.i, %22
  tail call void @_ZN4cvc58internal14ProofGeneratorD2Ev(ptr noundef nonnull align 8 dereferenceable(8) %2) #21
  tail call void @_ZdlPvm(ptr noundef nonnull %0, i64 noundef 56) #20
  ret void
}